target datalayout = "e-m:e-p270:32:32-p271:32:32-p272:64:64-i64:64-i128:128-f80:128-n8:16:32:64-S128"
target triple = "x86_64-pc-linux-gnu"

%"class.icu_77::RBBITableBuilder" = type <{ ptr, ptr, ptr, ptr, ptr, ptr, i32, [4 x i8] }>
%"class.icu_77::UVector" = type { %"class.icu_77::UObject", i32, i32, ptr, ptr, ptr }
%"class.icu_77::UObject" = type { ptr }

@_ZN6icu_7719RBBIStateDescriptorD1Ev = unnamed_addr alias void (ptr), ptr @_ZN6icu_7719RBBIStateDescriptorD2Ev

; Function Attrs: inlinehint mustprogress nounwind uwtable
define linkonce_odr noundef i32 @_ZNK6icu_777UVector4sizeEv(ptr noundef nonnull align 8 dereferenceable(40) %0) #1 comdat align 2 {
  %2 = alloca ptr, align 8
  store ptr %0, ptr %2, align 8, !tbaa !31
  %3 = load ptr, ptr %2, align 8
  %4 = getelementptr inbounds nuw %"class.icu_77::UVector", ptr %3, i32 0, i32 1
  %5 = load i32, ptr %4, align 8, !tbaa !32
  ret i32 %5
}

; Function Attrs: mustprogress nounwind uwtable
define void @_ZN6icu_7716RBBITableBuilderD2Ev(ptr noundef nonnull align 8 dereferenceable(52) %0) unnamed_addr #4 align 2 personality ptr @__gxx_personality_v0 {
  %2 = alloca ptr, align 8
  %3 = alloca i32, align 4
  store ptr %0, ptr %2, align 8, !tbaa !3
  %4 = load ptr, ptr %2, align 8
  call void @llvm.lifetime.start.p0(i64 4, ptr %3) #11
  store i32 0, ptr %3, align 4, !tbaa !26
  br label %5

5:                                                ; preds = %21, %1
  %6 = load i32, ptr %3, align 4, !tbaa !26
  %7 = getelementptr inbounds nuw %"class.icu_77::RBBITableBuilder", ptr %4, i32 0, i32 3
  %8 = load ptr, ptr %7, align 8, !tbaa !20
  %9 = invoke noundef i32 @_ZNK6icu_777UVector4sizeEv(ptr noundef nonnull align 8 dereferenceable(40) %8)
          to label %10 unwind label %49

10:                                               ; preds = %5
  %11 = icmp slt i32 %6, %9
  br i1 %11, label %12, label %24

12:                                               ; preds = %10
  %13 = getelementptr inbounds nuw %"class.icu_77::RBBITableBuilder", ptr %4, i32 0, i32 3
  %14 = load ptr, ptr %13, align 8, !tbaa !20
  %15 = load i32, ptr %3, align 4, !tbaa !26
  %16 = invoke noundef ptr @_ZNK6icu_777UVector9elementAtEi(ptr noundef nonnull align 8 dereferenceable(40) %14, i32 noundef %15)
          to label %17 unwind label %49

17:                                               ; preds = %12
  %18 = icmp eq ptr %16, null
  br i1 %18, label %20, label %19

19:                                               ; preds = %17
  call void @_ZN6icu_7719RBBIStateDescriptorD1Ev(ptr noundef nonnull align 8 dereferenceable(48) %16) #11
  call void @_ZN6icu_777UMemorydlEPv(ptr noundef %16) #11
  br label %20

20:                                               ; preds = %19, %17
  br label %21

21:                                               ; preds = %20
  %22 = load i32, ptr %3, align 4, !tbaa !26
  %23 = add nsw i32 %22, 1
  store i32 %23, ptr %3, align 4, !tbaa !26
  br label %5, !llvm.loop !27

24:                                               ; preds = %10
  %25 = getelementptr inbounds nuw %"class.icu_77::RBBITableBuilder", ptr %4, i32 0, i32 3
  %26 = load ptr, ptr %25, align 8, !tbaa !20
  %27 = icmp eq ptr %26, null
  br i1 %27, label %32, label %28

28:                                               ; preds = %24
  %29 = load ptr, ptr %26, align 8, !tbaa !29
  %30 = getelementptr inbounds ptr, ptr %29, i64 1
  %31 = load ptr, ptr %30, align 8
  call void %31(ptr noundef nonnull align 8 dereferenceable(40) %26) #11
  br label %32

32:                                               ; preds = %28, %24
  %33 = getelementptr inbounds nuw %"class.icu_77::RBBITableBuilder", ptr %4, i32 0, i32 4
  %34 = load ptr, ptr %33, align 8, !tbaa !21
  %35 = icmp eq ptr %34, null
  br i1 %35, label %40, label %36

36:                                               ; preds = %32
  %37 = load ptr, ptr %34, align 8, !tbaa !29
  %38 = getelementptr inbounds ptr, ptr %37, i64 1
  %39 = load ptr, ptr %38, align 8
  call void %39(ptr noundef nonnull align 8 dereferenceable(40) %34) #11
  br label %40

40:                                               ; preds = %36, %32
  %41 = getelementptr inbounds nuw %"class.icu_77::RBBITableBuilder", ptr %4, i32 0, i32 5
  %42 = load ptr, ptr %41, align 8, !tbaa !22
  %43 = icmp eq ptr %42, null
  br i1 %43, label %48, label %44

44:                                               ; preds = %40
  %45 = load ptr, ptr %42, align 8, !tbaa !29
  %46 = getelementptr inbounds ptr, ptr %45, i64 1
  %47 = load ptr, ptr %46, align 8
  call void %47(ptr noundef nonnull align 8 dereferenceable(32) %42) #11
  br label %48

48:                                               ; preds = %44, %40
  call void @llvm.lifetime.end.p0(i64 4, ptr %3) #11
  ret void

49:                                               ; preds = %12, %5
  %50 = landingpad { ptr, i32 }
          catch ptr null
  %51 = extractvalue { ptr, i32 } %50, 0
  call void @__clang_call_terminate(ptr %51) #12
  unreachable
}