; Function Attrs: mustprogress nounwind uwtable
define void @_ZN6icu_7716RBBITableBuilderD2Ev(ptr noundef nonnull readonly align 8 captures(none) dereferenceable(52) %0) unnamed_addr #3 align 2 personality ptr @__gxx_personality_v0 {
  %2 = getelementptr inbounds nuw i8, ptr %0, i64 24
  %3 = load ptr, ptr %2, align 8, !tbaa !19
  %4 = getelementptr inbounds nuw i8, ptr %3, i64 8
  %5 = load i32, ptr %4, align 8, !tbaa !20
  %6 = icmp sgt i32 %5, 0
  br i1 %6, label %.lr.ph, label %._crit_edge

.lr.ph:                                           ; preds = %1, %12
  %7 = phi ptr [ %14, %12 ], [ %3, %1 ]
  %.08 = phi i32 [ %13, %12 ], [ 0, %1 ]
  %8 = invoke noundef ptr @_ZNK6icu_777UVector9elementAtEi(ptr noundef nonnull align 8 dereferenceable(40) %7, i32 noundef %.08)
          to label %9 unwind label %37

9:                                                ; preds = %.lr.ph
  %10 = icmp eq ptr %8, null
  br i1 %10, label %12, label %11

11:                                               ; preds = %9
  tail call void @_ZN6icu_7719RBBIStateDescriptorD1Ev(ptr noundef nonnull align 8 dereferenceable(48) %8) #13
  tail call void @_ZN6icu_777UMemorydlEPv(ptr noundef nonnull %8) #13
  br label %12

12:                                               ; preds = %9, %11
  %13 = add nuw nsw i32 %.08, 1
  %14 = load ptr, ptr %2, align 8, !tbaa !19
  %15 = getelementptr inbounds nuw i8, ptr %14, i64 8
  %16 = load i32, ptr %15, align 8, !tbaa !20
  %17 = icmp slt i32 %13, %16
  br i1 %17, label %.lr.ph, label %._crit_edge, !llvm.loop !24

._crit_edge:                                      ; preds = %12, %1
  %.lcssa = phi ptr [ %3, %1 ], [ %14, %12 ]
  %18 = load ptr, ptr %.lcssa, align 8, !tbaa !26
  %19 = getelementptr inbounds nuw i8, ptr %18, i64 8
  %20 = load ptr, ptr %19, align 8
  tail call void %20(ptr noundef nonnull align 8 dereferenceable(40) %.lcssa) #13
  %21 = getelementptr inbounds nuw i8, ptr %0, i64 32
  %22 = load ptr, ptr %21, align 8, !tbaa !28
  %23 = icmp eq ptr %22, null
  br i1 %23, label %28, label %24

24:                                               ; preds = %._crit_edge
  %25 = load ptr, ptr %22, align 8, !tbaa !26
  %26 = getelementptr inbounds nuw i8, ptr %25, i64 8
  %27 = load ptr, ptr %26, align 8
  tail call void %27(ptr noundef nonnull align 8 dereferenceable(40) %22) #13
  br label %28

28:                                               ; preds = %24, %._crit_edge
  %29 = getelementptr inbounds nuw i8, ptr %0, i64 40
  %30 = load ptr, ptr %29, align 8, !tbaa !29
  %31 = icmp eq ptr %30, null
  br i1 %31, label %36, label %32

32:                                               ; preds = %28
  %33 = load ptr, ptr %30, align 8, !tbaa !26
  %34 = getelementptr inbounds nuw i8, ptr %33, i64 8
  %35 = load ptr, ptr %34, align 8
  tail call void %35(ptr noundef nonnull align 8 dereferenceable(32) %30) #13
  br label %36

36:                                               ; preds = %32, %28
  ret void

37:                                               ; preds = %.lr.ph
  %38 = landingpad { ptr, i32 }
          catch ptr null
  %39 = extractvalue { ptr, i32 } %38, 0
  tail call void @__clang_call_terminate(ptr %39) #14
  unreachable
}